; ModuleID = '49/1198.c'
source_filename = "49/1198.c"
target datalayout = "e-m:e-p270:32:32-p271:32:32-p272:64:64-i64:64-f80:128-n8:16:32:64-S128"
target triple = "x86_64-pc-linux-gnu"

@.str = private unnamed_addr constant [3 x i8] c"%c\00", align 1
@.str.1 = private unnamed_addr constant [2 x i8] c"\0A\00", align 1

; Function Attrs: noinline nounwind uwtable
define dso_local i32 @main() #0 {
  %1 = alloca i32, align 4
  %2 = alloca [501 x i8], align 16
  %3 = alloca [501 x [501 x i32]], align 16
  %4 = alloca [501 x i32], align 16
  %5 = alloca i32, align 4
  %6 = alloca i32, align 4
  %7 = alloca i32, align 4
  %8 = alloca i32, align 4
  store i32 0, i32* %1, align 4
  %9 = bitcast [501 x i8]* %2 to i8*
  call void @llvm.memset.p0i8.i64(i8* align 16 %9, i8 0, i64 501, i1 false)
  %10 = bitcast [501 x [501 x i32]]* %3 to i8*
  call void @llvm.memset.p0i8.i64(i8* align 16 %10, i8 0, i64 1004004, i1 false)
  %11 = bitcast [501 x i32]* %4 to i8*
  call void @llvm.memset.p0i8.i64(i8* align 16 %11, i8 0, i64 2004, i1 false)
  %12 = getelementptr inbounds [501 x i8], [501 x i8]* %2, i64 0, i64 0
  %13 = call i32 (i8*, ...) bitcast (i32 (...)* @gets to i32 (i8*, ...)*)(i8* %12)
  %14 = getelementptr inbounds [501 x i8], [501 x i8]* %2, i64 0, i64 0
  %15 = call i64 @strlen(i8* %14) #4
  %16 = trunc i64 %15 to i32
  store i32 %16, i32* %5, align 4
  store i32 1, i32* %6, align 4
  br label %17

17:                                               ; preds = %81, %0
  %18 = load i32, i32* %6, align 4
  %19 = load i32, i32* %5, align 4
  %20 = sub nsw i32 %19, 1
  %21 = icmp slt i32 %18, %20
  br i1 %21, label %22, label %84

22:                                               ; preds = %17
  store i32 1, i32* %7, align 4
  br label %23

23:                                               ; preds = %77, %22
  %24 = load i32, i32* %7, align 4
  %25 = load i32, i32* %6, align 4
  %26 = load i32, i32* %5, align 4
  %27 = load i32, i32* %6, align 4
  %28 = sub nsw i32 %26, %27
  %29 = sub nsw i32 %28, 1
  %30 = call i32 @min(i32 %25, i32 %29)
  %31 = icmp sle i32 %24, %30
  br i1 %31, label %32, label %80

32:                                               ; preds = %23
  %33 = load i32, i32* %6, align 4
  %34 = load i32, i32* %7, align 4
  %35 = sub nsw i32 %33, %34
  %36 = sext i32 %35 to i64
  %37 = getelementptr inbounds [501 x i8], [501 x i8]* %2, i64 0, i64 %36
  %38 = load i8, i8* %37, align 1
  %39 = sext i8 %38 to i32
  %40 = load i32, i32* %6, align 4
  %41 = load i32, i32* %7, align 4
  %42 = add nsw i32 %40, %41
  %43 = sext i32 %42 to i64
  %44 = getelementptr inbounds [501 x i8], [501 x i8]* %2, i64 0, i64 %43
  %45 = load i8, i8* %44, align 1
  %46 = sext i8 %45 to i32
  %47 = icmp eq i32 %39, %46
  br i1 %47, label %48, label %75

48:                                               ; preds = %32
  %49 = load i32, i32* %6, align 4
  %50 = load i32, i32* %7, align 4
  %51 = mul nsw i32 2, %50
  %52 = add nsw i32 %51, 1
  %53 = sext i32 %52 to i64
  %54 = getelementptr inbounds [501 x [501 x i32]], [501 x [501 x i32]]* %3, i64 0, i64 %53
  %55 = load i32, i32* %7, align 4
  %56 = mul nsw i32 2, %55
  %57 = add nsw i32 %56, 1
  %58 = sext i32 %57 to i64
  %59 = getelementptr inbounds [501 x i32], [501 x i32]* %4, i64 0, i64 %58
  %60 = load i32, i32* %59, align 4
  %61 = sext i32 %60 to i64
  %62 = getelementptr inbounds [501 x i32], [501 x i32]* %54, i64 0, i64 %61
  store i32 %49, i32* %62, align 4
  %63 = load i32, i32* %7, align 4
  %64 = mul nsw i32 2, %63
  %65 = add nsw i32 %64, 1
  %66 = sext i32 %65 to i64
  %67 = getelementptr inbounds [501 x i32], [501 x i32]* %4, i64 0, i64 %66
  %68 = load i32, i32* %67, align 4
  %69 = add nsw i32 %68, 1
  %70 = load i32, i32* %7, align 4
  %71 = mul nsw i32 2, %70
  %72 = add nsw i32 %71, 1
  %73 = sext i32 %72 to i64
  %74 = getelementptr inbounds [501 x i32], [501 x i32]* %4, i64 0, i64 %73
  store i32 %69, i32* %74, align 4
  br label %76

75:                                               ; preds = %32
  br label %80

76:                                               ; preds = %48
  br label %77

77:                                               ; preds = %76
  %78 = load i32, i32* %7, align 4
  %79 = add nsw i32 %78, 1
  store i32 %79, i32* %7, align 4
  br label %23

80:                                               ; preds = %75, %23
  br label %81

81:                                               ; preds = %80
  %82 = load i32, i32* %6, align 4
  %83 = add nsw i32 %82, 1
  store i32 %83, i32* %6, align 4
  br label %17

84:                                               ; preds = %17
  store i32 0, i32* %6, align 4
  br label %85

85:                                               ; preds = %150, %84
  %86 = load i32, i32* %6, align 4
  %87 = load i32, i32* %5, align 4
  %88 = sub nsw i32 %87, 1
  %89 = icmp slt i32 %86, %88
  br i1 %89, label %90, label %153

90:                                               ; preds = %85
  store i32 0, i32* %7, align 4
  br label %91

91:                                               ; preds = %146, %90
  %92 = load i32, i32* %7, align 4
  %93 = load i32, i32* %6, align 4
  %94 = load i32, i32* %5, align 4
  %95 = load i32, i32* %6, align 4
  %96 = sub nsw i32 %94, %95
  %97 = sub nsw i32 %96, 1
  %98 = call i32 @min(i32 %93, i32 %97)
  %99 = icmp sle i32 %92, %98
  br i1 %99, label %100, label %149

100:                                              ; preds = %91
  %101 = load i32, i32* %6, align 4
  %102 = load i32, i32* %7, align 4
  %103 = sub nsw i32 %101, %102
  %104 = sext i32 %103 to i64
  %105 = getelementptr inbounds [501 x i8], [501 x i8]* %2, i64 0, i64 %104
  %106 = load i8, i8* %105, align 1
  %107 = sext i8 %106 to i32
  %108 = load i32, i32* %6, align 4
  %109 = add nsw i32 %108, 1
  %110 = load i32, i32* %7, align 4
  %111 = add nsw i32 %109, %110
  %112 = sext i32 %111 to i64
  %113 = getelementptr inbounds [501 x i8], [501 x i8]* %2, i64 0, i64 %112
  %114 = load i8, i8* %113, align 1
  %115 = sext i8 %114 to i32
  %116 = icmp eq i32 %107, %115
  br i1 %116, label %117, label %144

117:                                              ; preds = %100
  %118 = load i32, i32* %6, align 4
  %119 = load i32, i32* %7, align 4
  %120 = mul nsw i32 2, %119
  %121 = add nsw i32 %120, 2
  %122 = sext i32 %121 to i64
  %123 = getelementptr inbounds [501 x [501 x i32]], [501 x [501 x i32]]* %3, i64 0, i64 %122
  %124 = load i32, i32* %7, align 4
  %125 = mul nsw i32 2, %124
  %126 = add nsw i32 %125, 2
  %127 = sext i32 %126 to i64
  %128 = getelementptr inbounds [501 x i32], [501 x i32]* %4, i64 0, i64 %127
  %129 = load i32, i32* %128, align 4
  %130 = sext i32 %129 to i64
  %131 = getelementptr inbounds [501 x i32], [501 x i32]* %123, i64 0, i64 %130
  store i32 %118, i32* %131, align 4
  %132 = load i32, i32* %7, align 4
  %133 = mul nsw i32 2, %132
  %134 = add nsw i32 %133, 2
  %135 = sext i32 %134 to i64
  %136 = getelementptr inbounds [501 x i32], [501 x i32]* %4, i64 0, i64 %135
  %137 = load i32, i32* %136, align 4
  %138 = add nsw i32 %137, 1
  %139 = load i32, i32* %7, align 4
  %140 = mul nsw i32 2, %139
  %141 = add nsw i32 %140, 2
  %142 = sext i32 %141 to i64
  %143 = getelementptr inbounds [501 x i32], [501 x i32]* %4, i64 0, i64 %142
  store i32 %138, i32* %143, align 4
  br label %145

144:                                              ; preds = %100
  br label %149

145:                                              ; preds = %117
  br label %146

146:                                              ; preds = %145
  %147 = load i32, i32* %7, align 4
  %148 = add nsw i32 %147, 1
  store i32 %148, i32* %7, align 4
  br label %91

149:                                              ; preds = %144, %91
  br label %150

150:                                              ; preds = %149
  %151 = load i32, i32* %6, align 4
  %152 = add nsw i32 %151, 1
  store i32 %152, i32* %6, align 4
  br label %85

153:                                              ; preds = %85
  store i32 2, i32* %6, align 4
  br label %154

154:                                              ; preds = %248, %153
  %155 = load i32, i32* %6, align 4
  %156 = load i32, i32* %5, align 4
  %157 = icmp sle i32 %155, %156
  br i1 %157, label %158, label %251

158:                                              ; preds = %154
  store i32 0, i32* %7, align 4
  br label %159

159:                                              ; preds = %244, %158
  %160 = load i32, i32* %7, align 4
  %161 = load i32, i32* %6, align 4
  %162 = sext i32 %161 to i64
  %163 = getelementptr inbounds [501 x i32], [501 x i32]* %4, i64 0, i64 %162
  %164 = load i32, i32* %163, align 4
  %165 = icmp slt i32 %160, %164
  br i1 %165, label %166, label %247

166:                                              ; preds = %159
  %167 = load i32, i32* %6, align 4
  %168 = srem i32 %167, 2
  %169 = icmp eq i32 %168, 0
  br i1 %169, label %170, label %207

170:                                              ; preds = %166
  %171 = load i32, i32* %6, align 4
  %172 = sext i32 %171 to i64
  %173 = getelementptr inbounds [501 x [501 x i32]], [501 x [501 x i32]]* %3, i64 0, i64 %172
  %174 = load i32, i32* %7, align 4
  %175 = sext i32 %174 to i64
  %176 = getelementptr inbounds [501 x i32], [501 x i32]* %173, i64 0, i64 %175
  %177 = load i32, i32* %176, align 4
  %178 = load i32, i32* %6, align 4
  %179 = sdiv i32 %178, 2
  %180 = sub nsw i32 %177, %179
  %181 = add nsw i32 %180, 1
  store i32 %181, i32* %8, align 4
  br label %182

182:                                              ; preds = %202, %170
  %183 = load i32, i32* %8, align 4
  %184 = load i32, i32* %6, align 4
  %185 = sext i32 %184 to i64
  %186 = getelementptr inbounds [501 x [501 x i32]], [501 x [501 x i32]]* %3, i64 0, i64 %185
  %187 = load i32, i32* %7, align 4
  %188 = sext i32 %187 to i64
  %189 = getelementptr inbounds [501 x i32], [501 x i32]* %186, i64 0, i64 %188
  %190 = load i32, i32* %189, align 4
  %191 = load i32, i32* %6, align 4
  %192 = sdiv i32 %191, 2
  %193 = add nsw i32 %190, %192
  %194 = icmp sle i32 %183, %193
  br i1 %194, label %195, label %205

195:                                              ; preds = %182
  %196 = load i32, i32* %8, align 4
  %197 = sext i32 %196 to i64
  %198 = getelementptr inbounds [501 x i8], [501 x i8]* %2, i64 0, i64 %197
  %199 = load i8, i8* %198, align 1
  %200 = sext i8 %199 to i32
  %201 = call i32 (i8*, ...) @printf(i8* getelementptr inbounds ([3 x i8], [3 x i8]* @.str, i64 0, i64 0), i32 %200)
  br label %202

202:                                              ; preds = %195
  %203 = load i32, i32* %8, align 4
  %204 = add nsw i32 %203, 1
  store i32 %204, i32* %8, align 4
  br label %182

205:                                              ; preds = %182
  %206 = call i32 (i8*, ...) @printf(i8* getelementptr inbounds ([2 x i8], [2 x i8]* @.str.1, i64 0, i64 0))
  br label %243

207:                                              ; preds = %166
  %208 = load i32, i32* %6, align 4
  %209 = sext i32 %208 to i64
  %210 = getelementptr inbounds [501 x [501 x i32]], [501 x [501 x i32]]* %3, i64 0, i64 %209
  %211 = load i32, i32* %7, align 4
  %212 = sext i32 %211 to i64
  %213 = getelementptr inbounds [501 x i32], [501 x i32]* %210, i64 0, i64 %212
  %214 = load i32, i32* %213, align 4
  %215 = load i32, i32* %6, align 4
  %216 = sdiv i32 %215, 2
  %217 = sub nsw i32 %214, %216
  store i32 %217, i32* %8, align 4
  br label %218

218:                                              ; preds = %238, %207
  %219 = load i32, i32* %8, align 4
  %220 = load i32, i32* %6, align 4
  %221 = sext i32 %220 to i64
  %222 = getelementptr inbounds [501 x [501 x i32]], [501 x [501 x i32]]* %3, i64 0, i64 %221
  %223 = load i32, i32* %7, align 4
  %224 = sext i32 %223 to i64
  %225 = getelementptr inbounds [501 x i32], [501 x i32]* %222, i64 0, i64 %224
  %226 = load i32, i32* %225, align 4
  %227 = load i32, i32* %6, align 4
  %228 = sdiv i32 %227, 2
  %229 = add nsw i32 %226, %228
  %230 = icmp sle i32 %219, %229
  br i1 %230, label %231, label %241

231:                                              ; preds = %218
  %232 = load i32, i32* %8, align 4
  %233 = sext i32 %232 to i64
  %234 = getelementptr inbounds [501 x i8], [501 x i8]* %2, i64 0, i64 %233
  %235 = load i8, i8* %234, align 1
  %236 = sext i8 %235 to i32
  %237 = call i32 (i8*, ...) @printf(i8* getelementptr inbounds ([3 x i8], [3 x i8]* @.str, i64 0, i64 0), i32 %236)
  br label %238

238:                                              ; preds = %231
  %239 = load i32, i32* %8, align 4
  %240 = add nsw i32 %239, 1
  store i32 %240, i32* %8, align 4
  br label %218

241:                                              ; preds = %218
  %242 = call i32 (i8*, ...) @printf(i8* getelementptr inbounds ([2 x i8], [2 x i8]* @.str.1, i64 0, i64 0))
  br label %243

243:                                              ; preds = %241, %205
  br label %244

244:                                              ; preds = %243
  %245 = load i32, i32* %7, align 4
  %246 = add nsw i32 %245, 1
  store i32 %246, i32* %7, align 4
  br label %159

247:                                              ; preds = %159
  br label %248

248:                                              ; preds = %247
  %249 = load i32, i32* %6, align 4
  %250 = add nsw i32 %249, 1
  store i32 %250, i32* %6, align 4
  br label %154

251:                                              ; preds = %154
  ret i32 0
}

; Function Attrs: argmemonly nounwind willreturn
declare void @llvm.memset.p0i8.i64(i8* nocapture writeonly, i8, i64, i1 immarg) #1

declare dso_local i32 @gets(...) #2

; Function Attrs: nounwind readonly
declare dso_local i64 @strlen(i8*) #3

; Function Attrs: noinline nounwind uwtable
define dso_local i32 @min(i32 %0, i32 %1) #0 {
  %3 = alloca i32, align 4
  %4 = alloca i32, align 4
  %5 = alloca i32, align 4
  store i32 %0, i32* %4, align 4
  store i32 %1, i32* %5, align 4
  %6 = load i32, i32* %4, align 4
  %7 = load i32, i32* %5, align 4
  %8 = icmp sgt i32 %6, %7
  br i1 %8, label %9, label %11

9:                                                ; preds = %2
  %10 = load i32, i32* %5, align 4
  store i32 %10, i32* %3, align 4
  br label %13

11:                                               ; preds = %2
  %12 = load i32, i32* %4, align 4
  store i32 %12, i32* %3, align 4
  br label %13

13:                                               ; preds = %11, %9
  %14 = load i32, i32* %3, align 4
  ret i32 %14
}

declare dso_local i32 @printf(i8*, ...) #2


!llvm.module.flags = !{!0}
!llvm.ident = !{!1}

!0 = !{i32 1, !"wchar_size", i32 4}
!1 = !{!"clang version 10.0.0-4ubuntu1 "}
